; Function Attrs: mustprogress uwtable
define void @_ZN3zmq5own_t9terminateEv(ptr noundef nonnull align 8 dereferenceable(1444) %this) local_unnamed_addr #0 align 2 personality ptr @__gxx_personality_v0 {
entry:
  %_terminating = getelementptr inbounds i8, ptr %this, i64 1360
  %0 = load i8, ptr %_terminating, align 8
  %1 = and i8 %0, 1
  %tobool.not = icmp eq i8 %1, 0
  br i1 %tobool.not, label %if.end, label %return

if.end:                                           ; preds = %entry
  %_owner = getelementptr inbounds i8, ptr %this, i64 1384
  %2 = load ptr, ptr %_owner, align 8
  %tobool2.not = icmp eq ptr %2, null
  br i1 %tobool2.not, label %if.then3, label %if.end4

if.then3:                                         ; preds = %if.end
  %linger = getelementptr inbounds i8, ptr %this, i64 336
  %3 = load atomic i32, ptr %linger acquire, align 8
  %vtable = load ptr, ptr %this, align 8
  %vfn = getelementptr inbounds i8, ptr %vtable, i64 128
  %4 = load ptr, ptr %vfn, align 8
  tail call void %4(ptr noundef nonnull align 8 dereferenceable(1444) %this, i32 noundef %3)
  br label %return

if.end4:                                          ; preds = %if.end
  tail call void @_ZN3zmq8object_t13send_term_reqEPNS_5own_tES2_(ptr noundef nonnull align 8 dereferenceable(20) %this, ptr noundef nonnull %2, ptr noundef nonnull %this)
  br label %return

return:                                           ; preds = %entry, %if.end4, %if.then3
  ret void
}